target datalayout = "e-m:e-p270:32:32-p271:32:32-p272:64:64-i64:64-i128:128-f80:128-n8:16:32:64-S128"
target triple = "x86_64-pc-linux-gnu"

@hf_gsm_a_dtap_cp_cause = internal global i32 0, align 4
@.str.903 = private unnamed_addr constant [11 x i8] c" - (%u) %s\00", align 1
@.str.941 = private unnamed_addr constant [47 x i8] c"Reserved, treat as Protocol error, unspecified\00", align 1
@.str.942 = private unnamed_addr constant [8 x i8] c"(%u) %s\00", align 1

; Function Attrs: null_pointer_is_valid sspstrong uwtable
define internal zeroext i16 @de_cp_cause(ptr noundef %0, ptr noundef %1, ptr noundef %2, i32 noundef %3, i32 noundef %4, ptr noundef %5, i32 noundef %6) #1 {
  %8 = alloca ptr, align 8
  %9 = alloca ptr, align 8
  %10 = alloca ptr, align 8
  %11 = alloca i32, align 4
  %12 = alloca i32, align 4
  %13 = alloca ptr, align 8
  %14 = alloca i32, align 4
  %15 = alloca i8, align 1
  %16 = alloca i32, align 4
  %17 = alloca ptr, align 8
  store ptr %0, ptr %8, align 8
  store ptr %1, ptr %9, align 8
  store ptr %2, ptr %10, align 8
  store i32 %3, ptr %11, align 4
  store i32 %4, ptr %12, align 4
  store ptr %5, ptr %13, align 8
  store i32 %6, ptr %14, align 4
  call void @llvm.lifetime.start.p0(i64 1, ptr %15) #7
  call void @llvm.lifetime.start.p0(i64 4, ptr %16) #7
  call void @llvm.lifetime.start.p0(i64 8, ptr %17) #7
  %18 = load i32, ptr %11, align 4
  store i32 %18, ptr %16, align 4
  %19 = load ptr, ptr %8, align 8
  %20 = load i32, ptr %16, align 4
  %21 = call zeroext i8 @tvb_get_uint8(ptr noundef %19, i32 noundef %20)
  store i8 %21, ptr %15, align 1
  %22 = load i8, ptr %15, align 1
  %23 = zext i8 %22 to i32
  %24 = call ptr @val_to_str_const(i32 noundef %23, ptr noundef @gsm_a_dtap_cp_cause_values, ptr noundef @.str.941)
  store ptr %24, ptr %17, align 8
  %25 = load ptr, ptr %9, align 8
  %26 = load i32, ptr @hf_gsm_a_dtap_cp_cause, align 4
  %27 = load ptr, ptr %8, align 8
  %28 = load i32, ptr %16, align 4
  %29 = load i8, ptr %15, align 1
  %30 = zext i8 %29 to i32
  %31 = load i8, ptr %15, align 1
  %32 = zext i8 %31 to i32
  %33 = load ptr, ptr %17, align 8
  %34 = call ptr (ptr, i32, ptr, i32, i32, i32, ptr, ...) @proto_tree_add_uint_format_value(ptr noundef %25, i32 noundef %26, ptr noundef %27, i32 noundef %28, i32 noundef 1, i32 noundef %30, ptr noundef @.str.942, i32 noundef %32, ptr noundef %33)
  %35 = load i32, ptr %16, align 4
  %36 = add i32 %35, 1
  store i32 %36, ptr %16, align 4
  %37 = load ptr, ptr %13, align 8
  %38 = icmp ne ptr %37, null
  br i1 %38, label %39, label %49

39:                                               ; preds = %7
  %40 = load ptr, ptr %13, align 8
  %41 = load i32, ptr %14, align 4
  %42 = sext i32 %41 to i64
  %43 = load ptr, ptr %13, align 8
  %44 = call i64 @llvm.objectsize.i64.p0(ptr %43, i1 false, i1 true, i1 true)
  %45 = load i8, ptr %15, align 1
  %46 = zext i8 %45 to i32
  %47 = load ptr, ptr %17, align 8
  %48 = call i32 (ptr, i64, i32, i64, ptr, ...) @__snprintf_chk(ptr noundef %40, i64 noundef %42, i32 noundef 2, i64 noundef %44, ptr noundef @.str.903, i32 noundef %46, ptr noundef %47)
  br label %49

49:                                               ; preds = %39, %7
  %50 = load i32, ptr %16, align 4
  %51 = load i32, ptr %11, align 4
  %52 = sub i32 %50, %51
  %53 = trunc i32 %52 to i16
  call void @llvm.lifetime.end.p0(i64 8, ptr %17) #7
  call void @llvm.lifetime.end.p0(i64 4, ptr %16) #7
  call void @llvm.lifetime.end.p0(i64 1, ptr %15) #7
  ret i16 %53
}