; Function Attrs: null_pointer_is_valid sspstrong uwtable
define internal noundef zeroext i16 @de_cp_cause(ptr noundef %0, ptr noundef %1, ptr readnone captures(none) %2, i32 noundef %3, i32 %4, ptr noundef %5, i32 noundef %6) #1 {
  %8 = tail call zeroext i8 @tvb_get_uint8(ptr noundef %0, i32 noundef %3)
  %9 = zext i8 %8 to i32
  %10 = tail call ptr @val_to_str_const(i32 noundef %9, ptr noundef nonnull @gsm_a_dtap_cp_cause_values, ptr noundef nonnull @.str.941)
  %11 = load i32, ptr @hf_gsm_a_dtap_cp_cause, align 4
  %12 = tail call ptr (ptr, i32, ptr, i32, i32, i32, ptr, ...) @proto_tree_add_uint_format_value(ptr noundef %1, i32 noundef %11, ptr noundef %0, i32 noundef %3, i32 noundef 1, i32 noundef %9, ptr noundef nonnull @.str.942, i32 noundef %9, ptr noundef %10)
  %.not = icmp eq ptr %5, null
  br i1 %.not, label %16, label %13

13:                                               ; preds = %7
  %14 = sext i32 %6 to i64
  %15 = tail call i32 (ptr, i64, i32, i64, ptr, ...) @__snprintf_chk(ptr noundef nonnull %5, i64 noundef %14, i32 noundef 2, i64 noundef -1, ptr noundef nonnull @.str.903, i32 noundef %9, ptr noundef %10)
  br label %16

16:                                               ; preds = %13, %7
  ret i16 1
}